target datalayout = "e-m:e-p270:32:32-p271:32:32-p272:64:64-i64:64-i128:128-f80:128-n8:16:32:64-S128"
target triple = "x86_64-pc-linux-gnu"

%struct.Ssw_Man_t_ = type { ptr, i32, ptr, ptr, ptr, ptr, i32, ptr, ptr, ptr, i32, i32, i32, i32, i32, i32, i32, i32, i32, i32, i32, ptr, i32, ptr, i32, i32, i32, i32, ptr, ptr, ptr, i32, ptr, i32, i32, ptr, ptr, ptr, i32, ptr, i32, i32, i32, i32, i32, i32, i32, i32, i32, i32, i32, i32, i32, i32, i32, i32, i32, i32, i32, i32, i32, i32, i64, i64, i64, i64, i64, i64, i64, i64, i64, i64 }
%struct.Aig_Obj_t_ = type { %union.anon, ptr, ptr, i64, i32, i32, %union.anon.0 }
%union.anon = type { ptr }
%union.anon.0 = type { ptr }
%struct.Aig_Man_t_ = type { ptr, ptr, ptr, ptr, ptr, ptr, ptr, %struct.Aig_Obj_t_, i32, i32, i32, i32, i32, i32, [7 x i32], i32, ptr, i32, ptr, i32, ptr, i32, i32, i32, ptr, i32, i32, i32, i32, i32, ptr, ptr, i32, ptr, ptr, i32, ptr, ptr, i32, i32, i32, ptr, ptr, ptr, ptr, ptr, ptr, ptr, ptr, ptr, ptr, ptr, ptr, ptr, ptr, i32, ptr, ptr, ptr, ptr, i32, i64, i64, i64, ptr, ptr }
%struct.Vec_Ptr_t_ = type { i32, i32, ptr }
%struct.Vec_Int_t_ = type { i32, i32, ptr }
%struct.Ssw_Pars_t_ = type { i32, i32, i32, i32, i32, i32, i32, i32, i32, i32, i32, i32, i32, i32, i32, i32, i32, i32, i32, i32, i32, i32, i32, i32, i32, i32, i32, i32, i32, i32, i32, i32, i32, i32, i32, i32, i32, i32, i32, i32, i32, i32, ptr, ptr }
%struct.Ssw_Sat_t_ = type { ptr, i32, ptr, i32, ptr, ptr, ptr, i32 }
%struct.sat_solver_t = type { i32, i32, i32, i32, %struct.Sat_Mem_t_, i32, i32, ptr, ptr, i32, i32, i32, i32, i32, i64, i64, i64, ptr, ptr, i32, i32, %struct.veci_t, ptr, i32, ptr, ptr, ptr, ptr, ptr, ptr, ptr, ptr, %struct.veci_t, %struct.veci_t, %struct.veci_t, %struct.veci_t, ptr, %struct.veci_t, i32, i32, i32, double, double, i32, i32, i32, %struct.stats_t, i32, i32, i32, i32, i32, i64, i64, i64, %struct.veci_t, ptr, i32, i32, i32, %struct.veci_t, %struct.veci_t, i32, i32, i32, ptr, ptr, i32, ptr, i32, i32, %struct.veci_t, %struct.veci_t, %struct.veci_t, ptr, ptr, i32, ptr }
%struct.Sat_Mem_t_ = type { [2 x i32], [2 x i32], [2 x i32], [2 x i32], i32, i32, i32, i32, ptr }
%struct.stats_t = type { i32, i32, i32, i64, i64, i64, i64, i64, i64, i64 }
%struct.veci_t = type { i32, i32, ptr }

; Function Attrs: inlinehint nounwind uwtable
define internal ptr @Aig_ObjChild0(ptr noundef %0) #2 {
  %2 = alloca ptr, align 8
  store ptr %0, ptr %2, align 8, !tbaa !32
  %3 = load ptr, ptr %2, align 8, !tbaa !32
  %4 = getelementptr inbounds nuw %struct.Aig_Obj_t_, ptr %3, i32 0, i32 1
  %5 = load ptr, ptr %4, align 8, !tbaa !47
  ret ptr %5
}

; Function Attrs: inlinehint nounwind uwtable
define internal ptr @Aig_ManCo(ptr noundef %0, i32 noundef %1) #2 {
  %3 = alloca ptr, align 8
  %4 = alloca i32, align 4
  store ptr %0, ptr %3, align 8, !tbaa !36
  store i32 %1, ptr %4, align 4, !tbaa !21
  %5 = load ptr, ptr %3, align 8, !tbaa !36
  %6 = getelementptr inbounds nuw %struct.Aig_Man_t_, ptr %5, i32 0, i32 3
  %7 = load ptr, ptr %6, align 8, !tbaa !84
  %8 = load i32, ptr %4, align 4, !tbaa !21
  %9 = call ptr @Vec_PtrEntry(ptr noundef %7, i32 noundef %8)
  ret ptr %9
}

; Function Attrs: inlinehint nounwind uwtable
define internal i32 @Vec_IntEntry(ptr noundef %0, i32 noundef %1) #2 {
  %3 = alloca ptr, align 8
  %4 = alloca i32, align 4
  store ptr %0, ptr %3, align 8, !tbaa !49
  store i32 %1, ptr %4, align 4, !tbaa !21
  %5 = load ptr, ptr %3, align 8, !tbaa !49
  %6 = getelementptr inbounds nuw %struct.Vec_Int_t_, ptr %5, i32 0, i32 2
  %7 = load ptr, ptr %6, align 8, !tbaa !57
  %8 = load i32, ptr %4, align 4, !tbaa !21
  %9 = sext i32 %8 to i64
  %10 = getelementptr inbounds i32, ptr %7, i64 %9
  %11 = load i32, ptr %10, align 4, !tbaa !21
  ret i32 %11
}

; Function Attrs: inlinehint nounwind uwtable
define internal i32 @Vec_IntSize(ptr noundef %0) #2 {
  %2 = alloca ptr, align 8
  store ptr %0, ptr %2, align 8, !tbaa !49
  %3 = load ptr, ptr %2, align 8, !tbaa !49
  %4 = getelementptr inbounds nuw %struct.Vec_Int_t_, ptr %3, i32 0, i32 1
  %5 = load i32, ptr %4, align 4, !tbaa !54
  ret i32 %5
}

; Function Attrs: inlinehint nounwind uwtable
define internal ptr @Vec_PtrEntry(ptr noundef %0, i32 noundef %1) #2 {
  %3 = alloca ptr, align 8
  %4 = alloca i32, align 4
  store ptr %0, ptr %3, align 8, !tbaa !39
  store i32 %1, ptr %4, align 4, !tbaa !21
  %5 = load ptr, ptr %3, align 8, !tbaa !39
  %6 = getelementptr inbounds nuw %struct.Vec_Ptr_t_, ptr %5, i32 0, i32 2
  %7 = load ptr, ptr %6, align 8, !tbaa !40
  %8 = load i32, ptr %4, align 4, !tbaa !21
  %9 = sext i32 %8 to i64
  %10 = getelementptr inbounds ptr, ptr %7, i64 %9
  %11 = load ptr, ptr %10, align 8, !tbaa !42
  ret ptr %11
}

; Function Attrs: inlinehint nounwind uwtable
define internal i32 @Vec_PtrSize(ptr noundef %0) #2 {
  %2 = alloca ptr, align 8
  store ptr %0, ptr %2, align 8, !tbaa !39
  %3 = load ptr, ptr %2, align 8, !tbaa !39
  %4 = getelementptr inbounds nuw %struct.Vec_Ptr_t_, ptr %3, i32 0, i32 1
  %5 = load i32, ptr %4, align 4, !tbaa !45
  ret i32 %5
}

; Function Attrs: inlinehint nounwind uwtable
define internal void @Vec_IntClear(ptr noundef %0) #2 {
  %2 = alloca ptr, align 8
  store ptr %0, ptr %2, align 8, !tbaa !49
  %3 = load ptr, ptr %2, align 8, !tbaa !49
  %4 = getelementptr inbounds nuw %struct.Vec_Int_t_, ptr %3, i32 0, i32 1
  store i32 0, ptr %4, align 4, !tbaa !54
  ret void
}

; Function Attrs: inlinehint nounwind uwtable
define internal void @Vec_PtrClear(ptr noundef %0) #2 {
  %2 = alloca ptr, align 8
  store ptr %0, ptr %2, align 8, !tbaa !39
  %3 = load ptr, ptr %2, align 8, !tbaa !39
  %4 = getelementptr inbounds nuw %struct.Vec_Ptr_t_, ptr %3, i32 0, i32 1
  store i32 0, ptr %4, align 4, !tbaa !45
  ret void
}

; Function Attrs: inlinehint nounwind uwtable
define internal ptr @Aig_Regular(ptr noundef %0) #2 {
  %2 = alloca ptr, align 8
  store ptr %0, ptr %2, align 8, !tbaa !32
  %3 = load ptr, ptr %2, align 8, !tbaa !32
  %4 = ptrtoint ptr %3 to i64
  %5 = and i64 %4, -2
  %6 = inttoptr i64 %5 to ptr
  ret ptr %6
}

; Function Attrs: inlinehint nounwind uwtable
define internal ptr @Ssw_ObjFrame(ptr noundef %0, ptr noundef %1, i32 noundef %2) #2 {
  %4 = alloca ptr, align 8
  %5 = alloca ptr, align 8
  %6 = alloca i32, align 4
  store ptr %0, ptr %4, align 8, !tbaa !3
  store ptr %1, ptr %5, align 8, !tbaa !32
  store i32 %2, ptr %6, align 4, !tbaa !21
  %7 = load ptr, ptr %4, align 8, !tbaa !3
  %8 = getelementptr inbounds nuw %struct.Ssw_Man_t_, ptr %7, i32 0, i32 4
  %9 = load ptr, ptr %8, align 8, !tbaa !43
  %10 = load ptr, ptr %4, align 8, !tbaa !3
  %11 = getelementptr inbounds nuw %struct.Ssw_Man_t_, ptr %10, i32 0, i32 1
  %12 = load i32, ptr %11, align 8, !tbaa !22
  %13 = load ptr, ptr %5, align 8, !tbaa !32
  %14 = getelementptr inbounds nuw %struct.Aig_Obj_t_, ptr %13, i32 0, i32 5
  %15 = load i32, ptr %14, align 4, !tbaa !44
  %16 = mul nsw i32 %12, %15
  %17 = load i32, ptr %6, align 4, !tbaa !21
  %18 = add nsw i32 %16, %17
  %19 = sext i32 %18 to i64
  %20 = getelementptr inbounds ptr, ptr %9, i64 %19
  %21 = load ptr, ptr %20, align 8, !tbaa !32
  ret ptr %21
}

; Function Attrs: nounwind uwtable
define void @Ssw_ManLoadSolver(ptr noundef %0, ptr noundef %1, ptr noundef %2) #0 {
  %4 = alloca ptr, align 8
  %5 = alloca ptr, align 8
  %6 = alloca ptr, align 8
  %7 = alloca ptr, align 8
  %8 = alloca ptr, align 8
  %9 = alloca ptr, align 8
  %10 = alloca ptr, align 8
  %11 = alloca ptr, align 8
  %12 = alloca i32, align 4
  %13 = alloca i32, align 4
  %14 = alloca i32, align 4
  store ptr %0, ptr %4, align 8, !tbaa !3
  store ptr %1, ptr %5, align 8, !tbaa !32
  store ptr %2, ptr %6, align 8, !tbaa !32
  call void @llvm.lifetime.start.p0(i64 8, ptr %7) #8
  call void @llvm.lifetime.start.p0(i64 8, ptr %8) #8
  call void @llvm.lifetime.start.p0(i64 8, ptr %9) #8
  call void @llvm.lifetime.start.p0(i64 8, ptr %10) #8
  call void @llvm.lifetime.start.p0(i64 8, ptr %11) #8
  call void @llvm.lifetime.start.p0(i64 4, ptr %12) #8
  call void @llvm.lifetime.start.p0(i64 4, ptr %13) #8
  call void @llvm.lifetime.start.p0(i64 4, ptr %14) #8
  %15 = load ptr, ptr %4, align 8, !tbaa !3
  %16 = load ptr, ptr %5, align 8, !tbaa !32
  %17 = load ptr, ptr %4, align 8, !tbaa !3
  %18 = getelementptr inbounds nuw %struct.Ssw_Man_t_, ptr %17, i32 0, i32 0
  %19 = load ptr, ptr %18, align 8, !tbaa !60
  %20 = getelementptr inbounds nuw %struct.Ssw_Pars_t_, ptr %19, i32 0, i32 3
  %21 = load i32, ptr %20, align 4, !tbaa !61
  %22 = call ptr @Ssw_ObjFrame(ptr noundef %15, ptr noundef %16, i32 noundef %21)
  %23 = call ptr @Aig_Regular(ptr noundef %22)
  store ptr %23, ptr %8, align 8, !tbaa !32
  %24 = load ptr, ptr %4, align 8, !tbaa !3
  %25 = load ptr, ptr %6, align 8, !tbaa !32
  %26 = load ptr, ptr %4, align 8, !tbaa !3
  %27 = getelementptr inbounds nuw %struct.Ssw_Man_t_, ptr %26, i32 0, i32 0
  %28 = load ptr, ptr %27, align 8, !tbaa !60
  %29 = getelementptr inbounds nuw %struct.Ssw_Pars_t_, ptr %28, i32 0, i32 3
  %30 = load i32, ptr %29, align 4, !tbaa !61
  %31 = call ptr @Ssw_ObjFrame(ptr noundef %24, ptr noundef %25, i32 noundef %30)
  %32 = call ptr @Aig_Regular(ptr noundef %31)
  store ptr %32, ptr %7, align 8, !tbaa !32
  %33 = load ptr, ptr %4, align 8, !tbaa !3
  %34 = getelementptr inbounds nuw %struct.Ssw_Man_t_, ptr %33, i32 0, i32 8
  %35 = load ptr, ptr %34, align 8, !tbaa !63
  %36 = load ptr, ptr %8, align 8, !tbaa !32
  call void @Ssw_CnfNodeAddToSolver(ptr noundef %35, ptr noundef %36)
  %37 = load ptr, ptr %4, align 8, !tbaa !3
  %38 = getelementptr inbounds nuw %struct.Ssw_Man_t_, ptr %37, i32 0, i32 8
  %39 = load ptr, ptr %38, align 8, !tbaa !63
  %40 = load ptr, ptr %7, align 8, !tbaa !32
  call void @Ssw_CnfNodeAddToSolver(ptr noundef %39, ptr noundef %40)
  %41 = load ptr, ptr %4, align 8, !tbaa !3
  %42 = getelementptr inbounds nuw %struct.Ssw_Man_t_, ptr %41, i32 0, i32 28
  %43 = load ptr, ptr %42, align 8, !tbaa !64
  call void @Vec_PtrClear(ptr noundef %43)
  %44 = load ptr, ptr %8, align 8, !tbaa !32
  %45 = load ptr, ptr %4, align 8, !tbaa !3
  %46 = getelementptr inbounds nuw %struct.Ssw_Man_t_, ptr %45, i32 0, i32 28
  %47 = load ptr, ptr %46, align 8, !tbaa !64
  call void @Ssw_ManCollectPis_rec(ptr noundef %44, ptr noundef %47)
  %48 = load ptr, ptr %7, align 8, !tbaa !32
  %49 = load ptr, ptr %4, align 8, !tbaa !3
  %50 = getelementptr inbounds nuw %struct.Ssw_Man_t_, ptr %49, i32 0, i32 28
  %51 = load ptr, ptr %50, align 8, !tbaa !64
  call void @Ssw_ManCollectPis_rec(ptr noundef %48, ptr noundef %51)
  %52 = load ptr, ptr %4, align 8, !tbaa !3
  %53 = getelementptr inbounds nuw %struct.Ssw_Man_t_, ptr %52, i32 0, i32 29
  %54 = load ptr, ptr %53, align 8, !tbaa !65
  call void @Vec_IntClear(ptr noundef %54)
  store i32 0, ptr %12, align 4, !tbaa !21
  br label %55

55:                                               ; preds = %76, %3
  %56 = load i32, ptr %12, align 4, !tbaa !21
  %57 = load ptr, ptr %4, align 8, !tbaa !3
  %58 = getelementptr inbounds nuw %struct.Ssw_Man_t_, ptr %57, i32 0, i32 28
  %59 = load ptr, ptr %58, align 8, !tbaa !64
  %60 = call i32 @Vec_PtrSize(ptr noundef %59)
  %61 = icmp slt i32 %56, %60
  br i1 %61, label %62, label %68

62:                                               ; preds = %55
  %63 = load ptr, ptr %4, align 8, !tbaa !3
  %64 = getelementptr inbounds nuw %struct.Ssw_Man_t_, ptr %63, i32 0, i32 28
  %65 = load ptr, ptr %64, align 8, !tbaa !64
  %66 = load i32, ptr %12, align 4, !tbaa !21
  %67 = call ptr @Vec_PtrEntry(ptr noundef %65, i32 noundef %66)
  store ptr %67, ptr %9, align 8, !tbaa !32
  br label %68

68:                                               ; preds = %62, %55
  %69 = phi i1 [ false, %55 ], [ true, %62 ]
  br i1 %69, label %70, label %79

70:                                               ; preds = %68
  %71 = load ptr, ptr %4, align 8, !tbaa !3
  %72 = load ptr, ptr %9, align 8, !tbaa !32
  %73 = load ptr, ptr %4, align 8, !tbaa !3
  %74 = getelementptr inbounds nuw %struct.Ssw_Man_t_, ptr %73, i32 0, i32 29
  %75 = load ptr, ptr %74, align 8, !tbaa !65
  call void @Ssw_ManCollectPos_rec(ptr noundef %71, ptr noundef %72, ptr noundef %75)
  br label %76

76:                                               ; preds = %70
  %77 = load i32, ptr %12, align 4, !tbaa !21
  %78 = add nsw i32 %77, 1
  store i32 %78, ptr %12, align 4, !tbaa !21
  br label %55, !llvm.loop !66

79:                                               ; preds = %68
  store i32 0, ptr %12, align 4, !tbaa !21
  br label %80

80:                                               ; preds = %142, %79
  %81 = load i32, ptr %12, align 4, !tbaa !21
  %82 = load ptr, ptr %4, align 8, !tbaa !3
  %83 = getelementptr inbounds nuw %struct.Ssw_Man_t_, ptr %82, i32 0, i32 29
  %84 = load ptr, ptr %83, align 8, !tbaa !65
  %85 = call i32 @Vec_IntSize(ptr noundef %84)
  %86 = icmp slt i32 %81, %85
  br i1 %86, label %87, label %93

87:                                               ; preds = %80
  %88 = load ptr, ptr %4, align 8, !tbaa !3
  %89 = getelementptr inbounds nuw %struct.Ssw_Man_t_, ptr %88, i32 0, i32 29
  %90 = load ptr, ptr %89, align 8, !tbaa !65
  %91 = load i32, ptr %12, align 4, !tbaa !21
  %92 = call i32 @Vec_IntEntry(ptr noundef %90, i32 noundef %91)
  store i32 %92, ptr %13, align 4, !tbaa !21
  br label %93

93:                                               ; preds = %87, %80
  %94 = phi i1 [ false, %80 ], [ true, %87 ]
  br i1 %94, label %95, label %145

95:                                               ; preds = %93
  %96 = load ptr, ptr %4, align 8, !tbaa !3
  %97 = getelementptr inbounds nuw %struct.Ssw_Man_t_, ptr %96, i32 0, i32 3
  %98 = load ptr, ptr %97, align 8, !tbaa !8
  %99 = load i32, ptr %13, align 4, !tbaa !21
  %100 = mul nsw i32 2, %99
  %101 = call ptr @Aig_ManCo(ptr noundef %98, i32 noundef %100)
  store ptr %101, ptr %10, align 8, !tbaa !32
  %102 = load ptr, ptr %4, align 8, !tbaa !3
  %103 = getelementptr inbounds nuw %struct.Ssw_Man_t_, ptr %102, i32 0, i32 3
  %104 = load ptr, ptr %103, align 8, !tbaa !8
  %105 = load i32, ptr %13, align 4, !tbaa !21
  %106 = mul nsw i32 2, %105
  %107 = add nsw i32 %106, 1
  %108 = call ptr @Aig_ManCo(ptr noundef %104, i32 noundef %107)
  store ptr %108, ptr %11, align 8, !tbaa !32
  %109 = load ptr, ptr %10, align 8, !tbaa !32
  %110 = getelementptr inbounds nuw %struct.Aig_Obj_t_, ptr %109, i32 0, i32 3
  %111 = load i64, ptr %110, align 8
  %112 = lshr i64 %111, 5
  %113 = and i64 %112, 1
  %114 = trunc i64 %113 to i32
  %115 = icmp ne i32 %114, 0
  br i1 %115, label %124, label %116

116:                                              ; preds = %95
  %117 = load ptr, ptr %11, align 8, !tbaa !32
  %118 = getelementptr inbounds nuw %struct.Aig_Obj_t_, ptr %117, i32 0, i32 3
  %119 = load i64, ptr %118, align 8
  %120 = lshr i64 %119, 5
  %121 = and i64 %120, 1
  %122 = trunc i64 %121 to i32
  %123 = icmp ne i32 %122, 0
  br i1 %123, label %124, label %141

124:                                              ; preds = %116, %95
  %125 = load ptr, ptr %10, align 8, !tbaa !32
  %126 = getelementptr inbounds nuw %struct.Aig_Obj_t_, ptr %125, i32 0, i32 3
  %127 = load i64, ptr %126, align 8
  %128 = and i64 %127, -33
  %129 = or i64 %128, 32
  store i64 %129, ptr %126, align 8
  %130 = load ptr, ptr %11, align 8, !tbaa !32
  %131 = getelementptr inbounds nuw %struct.Aig_Obj_t_, ptr %130, i32 0, i32 3
  %132 = load i64, ptr %131, align 8
  %133 = and i64 %132, -33
  %134 = or i64 %133, 32
  store i64 %134, ptr %131, align 8
  %135 = load ptr, ptr %4, align 8, !tbaa !3
  %136 = load ptr, ptr %10, align 8, !tbaa !32
  %137 = call ptr @Aig_ObjChild0(ptr noundef %136)
  %138 = load ptr, ptr %11, align 8, !tbaa !32
  %139 = call ptr @Aig_ObjChild0(ptr noundef %138)
  %140 = call i32 @Ssw_NodesAreConstrained(ptr noundef %135, ptr noundef %137, ptr noundef %139)
  br label %141

141:                                              ; preds = %124, %116
  br label %142

142:                                              ; preds = %141
  %143 = load i32, ptr %12, align 4, !tbaa !21
  %144 = add nsw i32 %143, 1
  store i32 %144, ptr %12, align 4, !tbaa !21
  br label %80, !llvm.loop !67

145:                                              ; preds = %93
  %146 = load ptr, ptr %4, align 8, !tbaa !3
  %147 = getelementptr inbounds nuw %struct.Ssw_Man_t_, ptr %146, i32 0, i32 8
  %148 = load ptr, ptr %147, align 8, !tbaa !63
  %149 = getelementptr inbounds nuw %struct.Ssw_Sat_t_, ptr %148, i32 0, i32 2
  %150 = load ptr, ptr %149, align 8, !tbaa !68
  %151 = getelementptr inbounds nuw %struct.sat_solver_t, ptr %150, i32 0, i32 3
  %152 = load i32, ptr %151, align 4, !tbaa !71
  %153 = load ptr, ptr %4, align 8, !tbaa !3
  %154 = getelementptr inbounds nuw %struct.Ssw_Man_t_, ptr %153, i32 0, i32 8
  %155 = load ptr, ptr %154, align 8, !tbaa !63
  %156 = getelementptr inbounds nuw %struct.Ssw_Sat_t_, ptr %155, i32 0, i32 2
  %157 = load ptr, ptr %156, align 8, !tbaa !68
  %158 = getelementptr inbounds nuw %struct.sat_solver_t, ptr %157, i32 0, i32 2
  %159 = load i32, ptr %158, align 8, !tbaa !83
  %160 = icmp ne i32 %152, %159
  br i1 %160, label %161, label %168

161:                                              ; preds = %145
  %162 = load ptr, ptr %4, align 8, !tbaa !3
  %163 = getelementptr inbounds nuw %struct.Ssw_Man_t_, ptr %162, i32 0, i32 8
  %164 = load ptr, ptr %163, align 8, !tbaa !63
  %165 = getelementptr inbounds nuw %struct.Ssw_Sat_t_, ptr %164, i32 0, i32 2
  %166 = load ptr, ptr %165, align 8, !tbaa !68
  %167 = call i32 @sat_solver_simplify(ptr noundef %166)
  store i32 %167, ptr %14, align 4, !tbaa !21
  br label %168

168:                                              ; preds = %161, %145
  call void @llvm.lifetime.end.p0(i64 4, ptr %14) #8
  call void @llvm.lifetime.end.p0(i64 4, ptr %13) #8
  call void @llvm.lifetime.end.p0(i64 4, ptr %12) #8
  call void @llvm.lifetime.end.p0(i64 8, ptr %11) #8
  call void @llvm.lifetime.end.p0(i64 8, ptr %10) #8
  call void @llvm.lifetime.end.p0(i64 8, ptr %9) #8
  call void @llvm.lifetime.end.p0(i64 8, ptr %8) #8
  call void @llvm.lifetime.end.p0(i64 8, ptr %7) #8
  ret void
}