; Function Attrs: nounwind uwtable
define void @Ssw_ManLoadSolver(ptr noundef %0, ptr noundef readonly captures(none) %1, ptr noundef readonly captures(none) %2) local_unnamed_addr #2 {
  %4 = load ptr, ptr %0, align 8, !tbaa !56
  %5 = getelementptr inbounds nuw i8, ptr %4, i64 12
  %6 = load i32, ptr %5, align 4, !tbaa !57
  %7 = getelementptr i8, ptr %0, i64 8
  %.val49 = load i32, ptr %7, align 8, !tbaa !27
  %8 = getelementptr i8, ptr %0, i64 32
  %.val50 = load ptr, ptr %8, align 8, !tbaa !34
  %9 = getelementptr i8, ptr %1, i64 36
  %.val51 = load i32, ptr %9, align 4, !tbaa !35
  %10 = mul nsw i32 %.val51, %.val49
  %11 = add nsw i32 %10, %6
  %12 = sext i32 %11 to i64
  %13 = getelementptr inbounds ptr, ptr %.val50, i64 %12
  %14 = load ptr, ptr %13, align 8, !tbaa !36
  %15 = ptrtoint ptr %14 to i64
  %16 = and i64 %15, -2
  %17 = inttoptr i64 %16 to ptr
  %18 = getelementptr i8, ptr %2, i64 36
  %.val48 = load i32, ptr %18, align 4, !tbaa !35
  %19 = mul nsw i32 %.val48, %.val49
  %20 = add nsw i32 %19, %6
  %21 = sext i32 %20 to i64
  %22 = getelementptr inbounds ptr, ptr %.val50, i64 %21
  %23 = load ptr, ptr %22, align 8, !tbaa !36
  %24 = ptrtoint ptr %23 to i64
  %25 = and i64 %24, -2
  %26 = inttoptr i64 %25 to ptr
  %27 = getelementptr inbounds nuw i8, ptr %0, i64 64
  %28 = load ptr, ptr %27, align 8, !tbaa !59
  tail call void @Ssw_CnfNodeAddToSolver(ptr noundef %28, ptr noundef %17) #10
  %29 = load ptr, ptr %27, align 8, !tbaa !59
  tail call void @Ssw_CnfNodeAddToSolver(ptr noundef %29, ptr noundef %26) #10
  %30 = getelementptr inbounds nuw i8, ptr %0, i64 168
  %31 = load ptr, ptr %30, align 8, !tbaa !60
  %32 = getelementptr inbounds nuw i8, ptr %31, i64 4
  store i32 0, ptr %32, align 4, !tbaa !41
  tail call void @Ssw_ManCollectPis_rec(ptr noundef %17, ptr noundef %31)
  %33 = load ptr, ptr %30, align 8, !tbaa !60
  tail call void @Ssw_ManCollectPis_rec(ptr noundef %26, ptr noundef %33)
  %34 = getelementptr inbounds nuw i8, ptr %0, i64 176
  %35 = load ptr, ptr %34, align 8, !tbaa !61
  %36 = getelementptr inbounds nuw i8, ptr %35, i64 4
  store i32 0, ptr %36, align 4, !tbaa !49
  %37 = load ptr, ptr %30, align 8, !tbaa !60
  %38 = getelementptr i8, ptr %37, i64 4
  %.val5259 = load i32, ptr %38, align 4, !tbaa !41
  %39 = icmp sgt i32 %.val5259, 0
  br i1 %39, label %.lr.ph, label %.critedge2

.critedge.preheader:                              ; preds = %.lr.ph
  %.pre = load ptr, ptr %34, align 8, !tbaa !61
  %.phi.trans.insert = getelementptr i8, ptr %.pre, i64 4
  %.val5361.pre = load i32, ptr %.phi.trans.insert, align 4, !tbaa !49
  %40 = icmp sgt i32 %.val5361.pre, 0
  br i1 %40, label %.lr.ph63, label %.critedge2

.lr.ph63:                                         ; preds = %.critedge.preheader
  %41 = getelementptr inbounds nuw i8, ptr %0, i64 24
  br label %51

.lr.ph:                                           ; preds = %3, %.lr.ph
  %indvars.iv = phi i64 [ %indvars.iv.next, %.lr.ph ], [ 0, %3 ]
  %42 = phi ptr [ %47, %.lr.ph ], [ %37, %3 ]
  %43 = getelementptr i8, ptr %42, i64 8
  %.val = load ptr, ptr %43, align 8, !tbaa !31
  %44 = getelementptr inbounds nuw ptr, ptr %.val, i64 %indvars.iv
  %45 = load ptr, ptr %44, align 8, !tbaa !33
  %46 = load ptr, ptr %34, align 8, !tbaa !61
  tail call void @Ssw_ManCollectPos_rec(ptr noundef nonnull %0, ptr noundef %45, ptr noundef %46)
  %indvars.iv.next = add nuw nsw i64 %indvars.iv, 1
  %47 = load ptr, ptr %30, align 8, !tbaa !60
  %48 = getelementptr i8, ptr %47, i64 4
  %.val52 = load i32, ptr %48, align 4, !tbaa !41
  %49 = sext i32 %.val52 to i64
  %50 = icmp slt i64 %indvars.iv.next, %49
  br i1 %50, label %.lr.ph, label %.critedge.preheader, !llvm.loop !62

51:                                               ; preds = %.lr.ph63, %.critedge
  %52 = phi ptr [ %.pre, %.lr.ph63 ], [ %82, %.critedge ]
  %indvars.iv65 = phi i64 [ 0, %.lr.ph63 ], [ %indvars.iv.next66, %.critedge ]
  %53 = getelementptr i8, ptr %52, i64 8
  %.val54 = load ptr, ptr %53, align 8, !tbaa !52
  %54 = getelementptr inbounds nuw i32, ptr %.val54, i64 %indvars.iv65
  %55 = load i32, ptr %54, align 4, !tbaa !47
  %56 = load ptr, ptr %41, align 8, !tbaa !3
  %57 = shl nsw i32 %55, 1
  %58 = getelementptr i8, ptr %56, i64 24
  %.val55 = load ptr, ptr %58, align 8, !tbaa !63
  %59 = getelementptr i8, ptr %.val55, i64 8
  %.val55.val = load ptr, ptr %59, align 8, !tbaa !31
  %60 = sext i32 %57 to i64
  %61 = getelementptr inbounds ptr, ptr %.val55.val, i64 %60
  %62 = load ptr, ptr %61, align 8, !tbaa !33
  %63 = or disjoint i32 %57, 1
  %64 = sext i32 %63 to i64
  %65 = getelementptr inbounds ptr, ptr %.val55.val, i64 %64
  %66 = load ptr, ptr %65, align 8, !tbaa !33
  %67 = getelementptr inbounds nuw i8, ptr %62, i64 24
  %68 = load i64, ptr %67, align 8
  %69 = and i64 %68, 32
  %.not44 = icmp eq i64 %69, 0
  br i1 %.not44, label %70, label %74

70:                                               ; preds = %51
  %71 = getelementptr inbounds nuw i8, ptr %66, i64 24
  %72 = load i64, ptr %71, align 8
  %73 = and i64 %72, 32
  %.not45 = icmp eq i64 %73, 0
  br i1 %.not45, label %.critedge, label %74

74:                                               ; preds = %70, %51
  %75 = or i64 %68, 32
  store i64 %75, ptr %67, align 8
  %76 = getelementptr inbounds nuw i8, ptr %66, i64 24
  %77 = load i64, ptr %76, align 8
  %78 = or i64 %77, 32
  store i64 %78, ptr %76, align 8
  %79 = getelementptr i8, ptr %62, i64 8
  %.val57 = load ptr, ptr %79, align 8, !tbaa !43
  %80 = getelementptr i8, ptr %66, i64 8
  %.val58 = load ptr, ptr %80, align 8, !tbaa !43
  %81 = tail call i32 @Ssw_NodesAreConstrained(ptr noundef nonnull %0, ptr noundef %.val57, ptr noundef %.val58) #10
  %.pre69 = load ptr, ptr %34, align 8, !tbaa !61
  br label %.critedge

.critedge:                                        ; preds = %70, %74
  %82 = phi ptr [ %52, %70 ], [ %.pre69, %74 ]
  %indvars.iv.next66 = add nuw nsw i64 %indvars.iv65, 1
  %83 = getelementptr i8, ptr %82, i64 4
  %.val53 = load i32, ptr %83, align 4, !tbaa !49
  %84 = sext i32 %.val53 to i64
  %85 = icmp slt i64 %indvars.iv.next66, %84
  br i1 %85, label %51, label %.critedge2, !llvm.loop !64

.critedge2:                                       ; preds = %.critedge, %3, %.critedge.preheader
  %86 = load ptr, ptr %27, align 8, !tbaa !59
  %87 = getelementptr inbounds nuw i8, ptr %86, i64 16
  %88 = load ptr, ptr %87, align 8, !tbaa !65
  %89 = getelementptr inbounds nuw i8, ptr %88, i64 12
  %90 = load i32, ptr %89, align 4, !tbaa !68
  %91 = getelementptr inbounds nuw i8, ptr %88, i64 8
  %92 = load i32, ptr %91, align 8, !tbaa !80
  %.not = icmp eq i32 %90, %92
  br i1 %.not, label %95, label %93

93:                                               ; preds = %.critedge2
  %94 = tail call i32 @sat_solver_simplify(ptr noundef nonnull %88) #10
  br label %95

95:                                               ; preds = %93, %.critedge2
  ret void
}